; Function Attrs: mustprogress nofree norecurse nosync nounwind willreturn memory(argmem: readwrite) uwtable
define dso_local void @_ZN3net15P256KeyExchangeC2EP9ec_key_stPKh(ptr nocapture noundef nonnull writeonly align 8 dereferenceable(81) %this, ptr noundef %private_key, ptr nocapture noundef readonly %public_key) unnamed_addr #0 align 2 personality ptr @__gxx_personality_v0 {
entry:
  store ptr getelementptr inbounds ({ [8 x ptr] }, ptr @_ZTVN3net15P256KeyExchangeE, i64 0, i32 0, i64 2), ptr %this, align 8
  %private_key_ = getelementptr inbounds i8, ptr %this, i64 8
  store ptr %private_key, ptr %private_key_, align 8
  %public_key_ = getelementptr inbounds i8, ptr %this, i64 16
  tail call void @llvm.memcpy.p0.p0.i64(ptr noundef nonnull align 8 dereferenceable(65) %public_key_, ptr noundef nonnull align 1 dereferenceable(65) %public_key, i64 65, i1 false)
  ret void
}